target datalayout = "e-m:e-p270:32:32-p271:32:32-p272:64:64-i64:64-i128:128-f80:128-n8:16:32:64-S128"
target triple = "x86_64-pc-linux-gnu"

%struct.mbedtls_asn1_buf = type { i32, i64, ptr }
%struct.mbedtls_asn1_named_data = type { %struct.mbedtls_asn1_buf, %struct.mbedtls_asn1_buf, ptr, i8 }

; Function Attrs: nounwind uwtable
define hidden ptr @mbedtls_asn1_find_named_data(ptr noundef %0, ptr noundef %1, i64 noundef %2) #0 {
  %4 = alloca ptr, align 8
  %5 = alloca ptr, align 8
  %6 = alloca i64, align 8
  store ptr %0, ptr %4, align 8, !tbaa !51
  store ptr %1, ptr %5, align 8, !tbaa !9
  store i64 %2, ptr %6, align 8, !tbaa !14
  br label %7

7:                                                ; preds = %27, %3
  %8 = load ptr, ptr %4, align 8, !tbaa !51
  %9 = icmp ne ptr %8, null
  br i1 %9, label %10, label %31

10:                                               ; preds = %7
  %11 = load ptr, ptr %4, align 8, !tbaa !51
  %12 = getelementptr inbounds nuw %struct.mbedtls_asn1_named_data, ptr %11, i32 0, i32 0
  %13 = getelementptr inbounds nuw %struct.mbedtls_asn1_buf, ptr %12, i32 0, i32 1
  %14 = load i64, ptr %13, align 8, !tbaa !61
  %15 = load i64, ptr %6, align 8, !tbaa !14
  %16 = icmp eq i64 %14, %15
  br i1 %16, label %17, label %27

17:                                               ; preds = %10
  %18 = load ptr, ptr %4, align 8, !tbaa !51
  %19 = getelementptr inbounds nuw %struct.mbedtls_asn1_named_data, ptr %18, i32 0, i32 0
  %20 = getelementptr inbounds nuw %struct.mbedtls_asn1_buf, ptr %19, i32 0, i32 2
  %21 = load ptr, ptr %20, align 8, !tbaa !53
  %22 = load ptr, ptr %5, align 8, !tbaa !9
  %23 = load i64, ptr %6, align 8, !tbaa !14
  %24 = call i32 @memcmp(ptr noundef %21, ptr noundef %22, i64 noundef %23) #9
  %25 = icmp eq i32 %24, 0
  br i1 %25, label %26, label %27

26:                                               ; preds = %17
  br label %31

27:                                               ; preds = %17, %10
  %28 = load ptr, ptr %4, align 8, !tbaa !51
  %29 = getelementptr inbounds nuw %struct.mbedtls_asn1_named_data, ptr %28, i32 0, i32 2
  %30 = load ptr, ptr %29, align 8, !tbaa !58
  store ptr %30, ptr %4, align 8, !tbaa !51
  br label %7, !llvm.loop !62

31:                                               ; preds = %26, %7
  %32 = load ptr, ptr %4, align 8, !tbaa !51
  ret ptr %32
}