; Function Attrs: nofree nounwind memory(read, inaccessiblemem: none) uwtable
define hidden ptr @mbedtls_asn1_find_named_data(ptr noundef readonly %0, ptr noundef readonly captures(none) %1, i64 noundef %2) local_unnamed_addr #7 {
  %.not8 = icmp eq ptr %0, null
  br i1 %.not8, label %._crit_edge, label %.lr.ph

.lr.ph:                                           ; preds = %3, %11
  %.09 = phi ptr [ %13, %11 ], [ %0, %3 ]
  %4 = getelementptr inbounds nuw i8, ptr %.09, i64 8
  %5 = load i64, ptr %4, align 8, !tbaa !43
  %6 = icmp eq i64 %5, %2
  br i1 %6, label %7, label %11

7:                                                ; preds = %.lr.ph
  %8 = getelementptr inbounds nuw i8, ptr %.09, i64 16
  %9 = load ptr, ptr %8, align 8, !tbaa !35
  %bcmp = tail call i32 @bcmp(ptr %9, ptr %1, i64 %2)
  %10 = icmp eq i32 %bcmp, 0
  br i1 %10, label %._crit_edge, label %11

11:                                               ; preds = %7, %.lr.ph
  %12 = getelementptr inbounds nuw i8, ptr %.09, i64 48
  %13 = load ptr, ptr %12, align 8, !tbaa !40
  %.not = icmp eq ptr %13, null
  br i1 %.not, label %._crit_edge, label %.lr.ph, !llvm.loop !44

._crit_edge:                                      ; preds = %11, %7, %3
  %.0.lcssa = phi ptr [ null, %3 ], [ %.09, %7 ], [ null, %11 ]
  ret ptr %.0.lcssa
}